target datalayout = "e-m:e-p270:32:32-p271:32:32-p272:64:64-i64:64-i128:128-f80:128-n8:16:32:64-S128"
target triple = "x86_64-pc-linux-gnu"

%"class.std::__1::basic_string" = type { %"class.std::__1::__compressed_pair" }
%"class.std::__1::__compressed_pair" = type { %"struct.std::__1::__compressed_pair_elem" }
%"struct.std::__1::__compressed_pair_elem" = type { %"struct.std::__1::basic_string<char>::__rep" }
%"struct.std::__1::basic_string<char>::__rep" = type { %union.anon }
%union.anon = type { %"struct.std::__1::basic_string<char>::__long" }
%"struct.std::__1::basic_string<char>::__long" = type { %struct.anon.6, i64, ptr }
%struct.anon.6 = type { i64 }
%"class.mitsuba::Class" = type { %"class.std::__1::basic_string", %"class.std::__1::basic_string", %"class.std::__1::basic_string", %"class.std::__1::basic_string", ptr, [8 x i8], %"class.std::__1::function", %"class.std::__1::function.0" }
%"class.std::__1::function" = type { %"class.std::__1::__function::__value_func" }
%"class.std::__1::__function::__value_func" = type { %"struct.std::__1::aligned_storage<24>::type", ptr, [8 x i8] }
%"struct.std::__1::aligned_storage<24>::type" = type { [32 x i8] }
%"class.std::__1::function.0" = type { %"class.std::__1::__function::__value_func.4" }
%"class.std::__1::__function::__value_func.4" = type { %"struct.std::__1::aligned_storage<24>::type", ptr, [8 x i8] }

; Function Attrs: mustprogress nounwind uwtable
define linkonce_odr noundef ptr @_ZNK7mitsuba5Class6parentEv(ptr noundef nonnull align 16 dereferenceable(208) %0) #2 comdat align 2 {
  %2 = alloca ptr, align 8
  store ptr %0, ptr %2, align 8
  %3 = load ptr, ptr %2, align 8
  %4 = getelementptr inbounds %"class.mitsuba::Class", ptr %3, i32 0, i32 4
  %5 = load ptr, ptr %4, align 16
  ret ptr %5
}

; Function Attrs: mustprogress uwtable
define noundef zeroext i1 @_ZNK7mitsuba5Class12derives_fromEPKS0_(ptr noundef nonnull align 16 dereferenceable(208) %0, ptr noundef %1) #0 align 2 {
  %3 = alloca i1, align 1
  %4 = alloca ptr, align 8
  %5 = alloca ptr, align 8
  %6 = alloca ptr, align 8
  store ptr %0, ptr %4, align 8
  store ptr %1, ptr %5, align 8
  %7 = load ptr, ptr %4, align 8
  store ptr %7, ptr %6, align 8
  br label %8

8:                                                ; preds = %16, %2
  %9 = load ptr, ptr %6, align 8
  %10 = icmp ne ptr %9, null
  br i1 %10, label %11, label %19

11:                                               ; preds = %8
  %12 = load ptr, ptr %5, align 8
  %13 = load ptr, ptr %6, align 8
  %14 = icmp eq ptr %12, %13
  br i1 %14, label %15, label %16

15:                                               ; preds = %11
  store i1 true, ptr %3, align 1
  br label %20

16:                                               ; preds = %11
  %17 = load ptr, ptr %6, align 8
  %18 = call noundef ptr @_ZNK7mitsuba5Class6parentEv(ptr noundef nonnull align 16 dereferenceable(208) %17)
  store ptr %18, ptr %6, align 8
  br label %8, !llvm.loop !4

19:                                               ; preds = %8
  store i1 false, ptr %3, align 1
  br label %20

20:                                               ; preds = %19, %15
  %21 = load i1, ptr %3, align 1
  ret i1 %21
}