; Function Attrs: mustprogress nofree norecurse nosync nounwind willreturn memory(read, inaccessiblemem: none) uwtable
define noundef zeroext i1 @_ZNK7mitsuba5Class12derives_fromEPKS0_(ptr noundef nonnull readonly align 16 dereferenceable(208) %0, ptr noundef readnone %1) local_unnamed_addr #4 align 2 {
  %.not9 = icmp eq ptr %0, %1
  br i1 %.not9, label %._crit_edge, label %.lr.ph

.lr.ph:                                           ; preds = %2, %.lr.ph
  %.08 = phi ptr [ %4, %.lr.ph ], [ %0, %2 ]
  %3 = getelementptr inbounds i8, ptr %.08, i64 96
  %4 = load ptr, ptr %3, align 16
  %.not = icmp ne ptr %4, null
  %5 = icmp ne ptr %4, %1
  %or.cond.not = and i1 %5, %.not
  br i1 %or.cond.not, label %.lr.ph, label %._crit_edge, !llvm.loop !10

._crit_edge:                                      ; preds = %.lr.ph, %2
  %.not.lcssa = phi i1 [ true, %2 ], [ %.not, %.lr.ph ]
  ret i1 %.not.lcssa
}